target datalayout = "e-m:e-p270:32:32-p271:32:32-p272:64:64-i64:64-i128:128-f80:128-n8:16:32:64-S128"
target triple = "x86_64-unknown-linux-gnu"

%"struct.url::URLComponentSource" = type { ptr, ptr, ptr, ptr, ptr, ptr, ptr, ptr }
%"struct.url::Component" = type { i32, i32 }
%"struct.url::Parsed" = type { %"struct.url::Component", %"struct.url::Component", %"struct.url::Component", %"struct.url::Component", %"struct.url::Component", %"struct.url::Component", %"struct.url::Component", %"struct.url::Component", ptr }

; Function Attrs: mustprogress nounwind uwtable
define linkonce_odr dso_local void @_ZN3url18URLComponentSourceIcEC2EPKc(ptr noundef nonnull align 8 dereferenceable(64) %this, ptr noundef %default_value) unnamed_addr #1 comdat align 2 {
entry:
  %this.addr = alloca ptr, align 8
  %default_value.addr = alloca ptr, align 8
  store ptr %this, ptr %this.addr, align 8
  store ptr %default_value, ptr %default_value.addr, align 8
  %this1 = load ptr, ptr %this.addr, align 8
  %scheme = getelementptr inbounds %"struct.url::URLComponentSource", ptr %this1, i32 0, i32 0
  %0 = load ptr, ptr %default_value.addr, align 8
  store ptr %0, ptr %scheme, align 8
  %username = getelementptr inbounds %"struct.url::URLComponentSource", ptr %this1, i32 0, i32 1
  %1 = load ptr, ptr %default_value.addr, align 8
  store ptr %1, ptr %username, align 8
  %password = getelementptr inbounds %"struct.url::URLComponentSource", ptr %this1, i32 0, i32 2
  %2 = load ptr, ptr %default_value.addr, align 8
  store ptr %2, ptr %password, align 8
  %host = getelementptr inbounds %"struct.url::URLComponentSource", ptr %this1, i32 0, i32 3
  %3 = load ptr, ptr %default_value.addr, align 8
  store ptr %3, ptr %host, align 8
  %port = getelementptr inbounds %"struct.url::URLComponentSource", ptr %this1, i32 0, i32 4
  %4 = load ptr, ptr %default_value.addr, align 8
  store ptr %4, ptr %port, align 8
  %path = getelementptr inbounds %"struct.url::URLComponentSource", ptr %this1, i32 0, i32 5
  %5 = load ptr, ptr %default_value.addr, align 8
  store ptr %5, ptr %path, align 8
  %query = getelementptr inbounds %"struct.url::URLComponentSource", ptr %this1, i32 0, i32 6
  %6 = load ptr, ptr %default_value.addr, align 8
  store ptr %6, ptr %query, align 8
  %ref = getelementptr inbounds %"struct.url::URLComponentSource", ptr %this1, i32 0, i32 7
  %7 = load ptr, ptr %default_value.addr, align 8
  store ptr %7, ptr %ref, align 8
  ret void
}

; Function Attrs: mustprogress uwtable
define dso_local noundef zeroext i1 @_ZN3url14ReplaceFileURLEPKcRKNS_6ParsedERKNS_12ReplacementsIcEEPNS_16CharsetConverterEPNS_12CanonOutputTIcEEPS2_(ptr noundef %base, ptr noundef nonnull align 8 dereferenceable(72) %base_parsed, ptr noundef nonnull align 8 dereferenceable(136) %replacements, ptr noundef %query_converter, ptr noundef %output, ptr noundef %new_parsed) #0 personality ptr @__gxx_personality_v0 {
entry:
  %base.addr = alloca ptr, align 8
  %base_parsed.addr = alloca ptr, align 8
  %replacements.addr = alloca ptr, align 8
  %query_converter.addr = alloca ptr, align 8
  %output.addr = alloca ptr, align 8
  %new_parsed.addr = alloca ptr, align 8
  %source = alloca %"struct.url::URLComponentSource", align 8
  %parsed = alloca %"struct.url::Parsed", align 8
  %exn.slot = alloca ptr, align 8
  %ehselector.slot = alloca i32, align 4
  store ptr %base, ptr %base.addr, align 8
  store ptr %base_parsed, ptr %base_parsed.addr, align 8
  store ptr %replacements, ptr %replacements.addr, align 8
  store ptr %query_converter, ptr %query_converter.addr, align 8
  store ptr %output, ptr %output.addr, align 8
  store ptr %new_parsed, ptr %new_parsed.addr, align 8
  %0 = load ptr, ptr %base.addr, align 8
  call void @_ZN3url18URLComponentSourceIcEC2EPKc(ptr noundef nonnull align 8 dereferenceable(64) %source, ptr noundef %0)
  %1 = load ptr, ptr %base_parsed.addr, align 8
  call void @_ZN3url6ParsedC1ERKS0_(ptr noundef nonnull align 8 dereferenceable(72) %parsed, ptr noundef nonnull align 8 dereferenceable(72) %1)
  %2 = load ptr, ptr %base.addr, align 8
  %3 = load ptr, ptr %replacements.addr, align 8
  invoke void @_ZN3url23SetupOverrideComponentsEPKcRKNS_12ReplacementsIcEEPNS_18URLComponentSourceIcEEPNS_6ParsedE(ptr noundef %2, ptr noundef nonnull align 8 dereferenceable(136) %3, ptr noundef %source, ptr noundef %parsed)
          to label %invoke.cont unwind label %lpad

invoke.cont:                                      ; preds = %entry
  %4 = load ptr, ptr %query_converter.addr, align 8
  %5 = load ptr, ptr %output.addr, align 8
  %6 = load ptr, ptr %new_parsed.addr, align 8
  %call = invoke noundef zeroext i1 @_ZN3url12_GLOBAL__N_121DoCanonicalizeFileURLIchEEbRKNS_18URLComponentSourceIT_EERKNS_6ParsedEPNS_16CharsetConverterEPNS_12CanonOutputTIcEEPS7_(ptr noundef nonnull align 8 dereferenceable(64) %source, ptr noundef nonnull align 8 dereferenceable(72) %parsed, ptr noundef %4, ptr noundef %5, ptr noundef %6)
          to label %invoke.cont1 unwind label %lpad

invoke.cont1:                                     ; preds = %invoke.cont
  call void @_ZN3url6ParsedD1Ev(ptr noundef nonnull align 8 dereferenceable(72) %parsed) #8
  ret i1 %call

lpad:                                             ; preds = %invoke.cont, %entry
  %7 = landingpad { ptr, i32 }
          cleanup
  %8 = extractvalue { ptr, i32 } %7, 0
  store ptr %8, ptr %exn.slot, align 8
  %9 = extractvalue { ptr, i32 } %7, 1
  store i32 %9, ptr %ehselector.slot, align 4
  call void @_ZN3url6ParsedD1Ev(ptr noundef nonnull align 8 dereferenceable(72) %parsed) #8
  br label %eh.resume

eh.resume:                                        ; preds = %lpad
  %exn = load ptr, ptr %exn.slot, align 8
  %sel = load i32, ptr %ehselector.slot, align 4
  %lpad.val = insertvalue { ptr, i32 } poison, ptr %exn, 0
  %lpad.val2 = insertvalue { ptr, i32 } %lpad.val, i32 %sel, 1
  resume { ptr, i32 } %lpad.val2
}