; Function Attrs: mustprogress uwtable
define dso_local noundef zeroext i1 @_ZN3url14ReplaceFileURLEPKcRKNS_6ParsedERKNS_12ReplacementsIcEEPNS_16CharsetConverterEPNS_12CanonOutputTIcEEPS2_(ptr noundef %base, ptr noundef nonnull align 8 dereferenceable(72) %base_parsed, ptr noundef nonnull align 8 dereferenceable(136) %replacements, ptr noundef %query_converter, ptr noundef %output, ptr noundef %new_parsed) local_unnamed_addr #0 personality ptr @__gxx_personality_v0 {
entry:
  %source = alloca %"struct.url::URLComponentSource", align 8
  %parsed = alloca %"struct.url::Parsed", align 8
  store ptr %base, ptr %source, align 8
  %username.i = getelementptr inbounds i8, ptr %source, i64 8
  store ptr %base, ptr %username.i, align 8
  %password.i = getelementptr inbounds i8, ptr %source, i64 16
  store ptr %base, ptr %password.i, align 8
  %host.i = getelementptr inbounds i8, ptr %source, i64 24
  store ptr %base, ptr %host.i, align 8
  %port.i = getelementptr inbounds i8, ptr %source, i64 32
  store ptr %base, ptr %port.i, align 8
  %path.i = getelementptr inbounds i8, ptr %source, i64 40
  store ptr %base, ptr %path.i, align 8
  %query.i = getelementptr inbounds i8, ptr %source, i64 48
  store ptr %base, ptr %query.i, align 8
  %ref.i = getelementptr inbounds i8, ptr %source, i64 56
  store ptr %base, ptr %ref.i, align 8
  call void @_ZN3url6ParsedC1ERKS0_(ptr noundef nonnull align 8 dereferenceable(72) %parsed, ptr noundef nonnull align 8 dereferenceable(72) %base_parsed)
  invoke void @_ZN3url23SetupOverrideComponentsEPKcRKNS_12ReplacementsIcEEPNS_18URLComponentSourceIcEEPNS_6ParsedE(ptr noundef %base, ptr noundef nonnull align 8 dereferenceable(136) %replacements, ptr noundef nonnull %source, ptr noundef nonnull %parsed)
          to label %invoke.cont unwind label %lpad

invoke.cont:                                      ; preds = %entry
  %call = invoke fastcc noundef zeroext i1 @_ZN3url12_GLOBAL__N_121DoCanonicalizeFileURLIchEEbRKNS_18URLComponentSourceIT_EERKNS_6ParsedEPNS_16CharsetConverterEPNS_12CanonOutputTIcEEPS7_(ptr noundef nonnull align 8 dereferenceable(64) %source, ptr noundef nonnull align 8 dereferenceable(72) %parsed, ptr noundef %query_converter, ptr noundef %output, ptr noundef %new_parsed)
          to label %invoke.cont1 unwind label %lpad

invoke.cont1:                                     ; preds = %invoke.cont
  call void @_ZN3url6ParsedD1Ev(ptr noundef nonnull align 8 dereferenceable(72) %parsed) #9
  ret i1 %call

lpad:                                             ; preds = %invoke.cont, %entry
  %0 = landingpad { ptr, i32 }
          cleanup
  call void @_ZN3url6ParsedD1Ev(ptr noundef nonnull align 8 dereferenceable(72) %parsed) #9
  resume { ptr, i32 } %0
}